BL51 BANKED LINKER/LOCATER V6.22.4.0                                                    01/27/2023  12:06:16  PAGE 1


BL51 BANKED LINKER/LOCATER V6.22.4.0, INVOKED BY:
D:\KEIL5\C51\BIN\BL51.EXE .\Objects\main.obj, .\Objects\Move.obj, .\Objects\track.obj, .\Objects\delay.obj, .\Objects\HC
>> SR04.obj, .\Objects\Timer.obj TO .\Objects\test PRINT (.\Listings\test.m51) RAMSIZE (256)


MEMORY MODEL: SMALL WITH FLOATING POINT ARITHMETIC


INPUT MODULES INCLUDED:
  .\Objects\main.obj (MAIN)
  .\Objects\Move.obj (MOVE)
  .\Objects\track.obj (TRACK)
  .\Objects\delay.obj (DELAY)
  .\Objects\HCSR04.obj (HCSR04)
  .\Objects\Timer.obj (TIMER)
  D:\KEIL5\C51\LIB\C51FPS.LIB (?C?FPMUL)
  D:\KEIL5\C51\LIB\C51FPS.LIB (?C?FPDIV)
  D:\KEIL5\C51\LIB\C51FPS.LIB (?C?FCAST)
  D:\KEIL5\C51\LIB\C51FPS.LIB (?C?CASTF)
  D:\KEIL5\C51\LIB\C51FPS.LIB (?C?FPGETOPN)
  D:\KEIL5\C51\LIB\C51S.LIB (?C_STARTUP)
  D:\KEIL5\C51\LIB\C51S.LIB (?C?LNEG)
  D:\KEIL5\C51\LIB\C51S.LIB (?C?SLCMP)
  D:\KEIL5\C51\LIB\C51S.LIB (?C_INIT)


LINK MAP OF MODULE:  .\Objects\test (MAIN)


            TYPE    BASE      LENGTH    RELOCATION   SEGMENT NAME
            -----------------------------------------------------

            * * * * * * *   D A T A   M E M O R Y   * * * * * * *
            REG     0000H     0008H     ABSOLUTE     "REG BANK 0"
            DATA    0008H     000AH     UNIT         ?DT?TIMER
            DATA    0012H     0008H     UNIT         ?DT?MAIN
            DATA    001AH     0002H     UNIT         ?DT?HCSR04
            DATA    001CH     0002H     UNIT         _DATA_GROUP_
            IDATA   001EH     0001H     UNIT         ?STACK

            * * * * * * *   C O D E   M E M O R Y   * * * * * * *
            CODE    0000H     0003H     ABSOLUTE     
            CODE    0003H     0017H     UNIT         ?PR?TIMER1INIT?TIMER
                    001AH     0001H                  *** GAP ***
            CODE    001BH     0003H     ABSOLUTE     
            CODE    001EH     0009H     UNIT         ?PR?RIGHT_MOVE?MOVE
                    0027H     0004H                  *** GAP ***
            CODE    002BH     0003H     ABSOLUTE     
            CODE    002EH     0289H     UNIT         ?C?LIB_CODE
            CODE    02B7H     00B9H     UNIT         ?PR?GET_DISTANCE?HCSR04
            CODE    0370H     00B5H     UNIT         ?PR?TRACK?TRACK
            CODE    0425H     009FH     UNIT         ?PR?MAIN?MAIN
            CODE    04C4H     008CH     UNIT         ?C_C51STARTUP
            CODE    0550H     004AH     UNIT         ?PR?EN_PWM?TIMER
            CODE    059AH     0037H     UNIT         ?PR?TIMER_T1?TIMER
            CODE    05D1H     001AH     UNIT         ?PR?TIMER2INIT?TIMER
            CODE    05EBH     0019H     UNIT         ?C_INITSEG
            CODE    0604H     0010H     UNIT         ?PR?_DELAY10US?DELAY
BL51 BANKED LINKER/LOCATER V6.22.4.0                                                  01/27/2023  12:06:16  PAGE 2


            CODE    0614H     0010H     UNIT         ?PR?TIMER0INIT?HCSR04
            CODE    0624H     0009H     UNIT         ?PR?RIGHT_MOVE_HALF?MOVE
            CODE    062DH     0009H     UNIT         ?PR?LEFT_MOVE?MOVE
            CODE    0636H     0009H     UNIT         ?PR?LEFT_MOVE_HALF?MOVE
            CODE    063FH     0009H     UNIT         ?PR?GO_MOVE?MOVE
            CODE    0648H     0009H     UNIT         ?PR?STOP_MOVE?MOVE
            CODE    0651H     0007H     UNIT         ?PR?ULTRA_INIT?HCSR04



OVERLAY MAP OF MODULE:   .\Objects\test (MAIN)


SEGMENT                            DATA_GROUP 
  +--> CALLED SEGMENT            START    LENGTH
------------------------------------------------
?C_C51STARTUP                    -----    -----
  +--> ?PR?MAIN?MAIN
  +--> ?C_INITSEG

?PR?MAIN?MAIN                    -----    -----
  +--> ?PR?TIMER1INIT?TIMER
  +--> ?PR?TIMER2INIT?TIMER
  +--> ?PR?ULTRA_INIT?HCSR04
  +--> ?PR?GET_DISTANCE?HCSR04
  +--> ?PR?TRACK?TRACK
  +--> ?PR?LEFT_MOVE_HALF?MOVE
  +--> ?PR?RIGHT_MOVE_HALF?MOVE
  +--> ?PR?STOP_MOVE?MOVE
  +--> ?PR?_DELAY10US?DELAY
  +--> ?PR?RIGHT_MOVE?MOVE
  +--> ?PR?LEFT_MOVE?MOVE

?PR?ULTRA_INIT?HCSR04            -----    -----
  +--> ?PR?TIMER0INIT?HCSR04

?PR?GET_DISTANCE?HCSR04          001CH    0002H
  +--> ?PR?ULTRA_INIT?HCSR04
  +--> ?PR?_DELAY10US?DELAY

?PR?TRACK?TRACK                  -----    -----
  +--> ?PR?STOP_MOVE?MOVE
  +--> ?PR?GO_MOVE?MOVE



SYMBOL TABLE OF MODULE:  .\Objects\test (MAIN)

  VALUE           TYPE          NAME
  ----------------------------------

  -------         MODULE        MAIN
  C:0000H         SYMBOL        _ICE_DUMMY_
  D:0080H         PUBLIC        P0
  D:0012H         PUBLIC        lenth
  B:0080H.6       PUBLIC        LLED
  C:0425H         PUBLIC        main
BL51 BANKED LINKER/LOCATER V6.22.4.0                                                  01/27/2023  12:06:16  PAGE 3


  B:0080H.7       PUBLIC        RLED
  D:0014H         PUBLIC        Ll
  D:0016H         PUBLIC        Lr
  D:0018H         PUBLIC        L
  -------         PROC          MAIN
  C:0425H         LINE#         18
  C:0425H         LINE#         19
  C:0425H         LINE#         20
  C:0428H         LINE#         21
  C:042BH         LINE#         22
  C:042EH         LINE#         24
  C:042EH         LINE#         25
  C:042EH         LINE#         26
  C:0435H         LINE#         27
  C:0440H         LINE#         28
  C:0440H         LINE#         29
  C:0448H         LINE#         30
  C:0448H         LINE#         31
  C:044BH         LINE#         32
  C:044DH         LINE#         34
  C:044DH         LINE#         35
  C:0450H         LINE#         36
  C:0450H         LINE#         37
  C:0453H         LINE#         38
  C:0455H         LINE#         40
  C:0455H         LINE#         41
  C:0458H         LINE#         42
  C:0458H         LINE#         43
  C:0458H         LINE#         44
  C:045AH         LINE#         46
  C:045AH         LINE#         48
  C:045DH         LINE#         50
  C:0464H         LINE#         51
  C:046AH         LINE#         52
  C:0471H         LINE#         53
  C:0478H         LINE#         54
  C:047FH         LINE#         55
  C:0485H         LINE#         56
  C:048CH         LINE#         57
  C:0493H         LINE#         58
  C:049AH         LINE#         59
  C:04A0H         LINE#         61
  C:04B2H         LINE#         62
  C:04B2H         LINE#         63
  C:04B5H         LINE#         64
  C:04B7H         LINE#         66
  C:04B7H         LINE#         67
  C:04BAH         LINE#         68
  C:04BAH         LINE#         69
  C:04C1H         LINE#         70
  C:04C1H         LINE#         71
  -------         ENDPROC       MAIN
  -------         ENDMOD        MAIN

  -------         MODULE        MOVE
  C:0000H         SYMBOL        _ICE_DUMMY_
  D:0090H         PUBLIC        P1
BL51 BANKED LINKER/LOCATER V6.22.4.0                                                  01/27/2023  12:06:16  PAGE 4


  C:0624H         PUBLIC        Right_move_half
  C:001EH         PUBLIC        Right_move
  C:0636H         PUBLIC        Left_move_half
  C:062DH         PUBLIC        Left_move
  C:0648H         PUBLIC        Stop_move
  B:0090H.3       PUBLIC        IN1
  B:0090H.4       PUBLIC        IN2
  B:0090H.5       PUBLIC        IN3
  B:0090H.6       PUBLIC        IN4
  C:063FH         PUBLIC        Go_move
  -------         PROC          RIGHT_MOVE
  C:001EH         LINE#         10
  C:001EH         LINE#         11
  C:001EH         LINE#         12
  C:0020H         LINE#         13
  C:0022H         LINE#         14
  C:0024H         LINE#         15
  C:0026H         LINE#         16
  -------         ENDPROC       RIGHT_MOVE
  -------         PROC          RIGHT_MOVE_HALF
  C:0624H         LINE#         17
  C:0624H         LINE#         18
  C:0624H         LINE#         19
  C:0626H         LINE#         20
  C:0628H         LINE#         21
  C:062AH         LINE#         22
  C:062CH         LINE#         23
  -------         ENDPROC       RIGHT_MOVE_HALF
  -------         PROC          LEFT_MOVE
  C:062DH         LINE#         25
  C:062DH         LINE#         26
  C:062DH         LINE#         27
  C:062FH         LINE#         28
  C:0631H         LINE#         29
  C:0633H         LINE#         30
  C:0635H         LINE#         31
  -------         ENDPROC       LEFT_MOVE
  -------         PROC          LEFT_MOVE_HALF
  C:0636H         LINE#         32
  C:0636H         LINE#         33
  C:0636H         LINE#         34
  C:0638H         LINE#         35
  C:063AH         LINE#         36
  C:063CH         LINE#         37
  C:063EH         LINE#         38
  -------         ENDPROC       LEFT_MOVE_HALF
  -------         PROC          GO_MOVE
  C:063FH         LINE#         40
  C:063FH         LINE#         41
  C:063FH         LINE#         42
  C:0641H         LINE#         43
  C:0643H         LINE#         44
  C:0645H         LINE#         45
  C:0647H         LINE#         46
  -------         ENDPROC       GO_MOVE
  -------         PROC          STOP_MOVE
  C:0648H         LINE#         48
BL51 BANKED LINKER/LOCATER V6.22.4.0                                                  01/27/2023  12:06:16  PAGE 5


  C:0648H         LINE#         49
  C:0648H         LINE#         50
  C:064AH         LINE#         51
  C:064CH         LINE#         52
  C:064EH         LINE#         53
  C:0650H         LINE#         54
  -------         ENDPROC       STOP_MOVE
  -------         ENDMOD        MOVE

  -------         MODULE        TRACK
  C:0000H         SYMBOL        _ICE_DUMMY_
  D:00A0H         PUBLIC        P2
  B:00A0H.0       PUBLIC        AL
  B:00A0H.1       PUBLIC        BL
  B:00A0H.2       PUBLIC        CL
  B:00A0H.3       PUBLIC        DL
  B:00A0H.4       PUBLIC        EL
  C:0370H         PUBLIC        Track
  -------         PROC          TRACK
  C:0370H         LINE#         19
  C:0370H         LINE#         20
  C:0370H         LINE#         22
  C:037FH         LINE#         23
  C:037FH         LINE#         24
  C:0385H         LINE#         25
  C:038BH         LINE#         26
  C:038EH         LINE#         27
  C:038EH         LINE#         30
  C:039DH         LINE#         31
  C:039DH         LINE#         32
  C:03A3H         LINE#         33
  C:03A9H         LINE#         34
  C:03ACH         LINE#         35
  C:03ACH         LINE#         37
  C:03BBH         LINE#         38
  C:03BBH         LINE#         40
  C:03C1H         LINE#         41
  C:03C7H         LINE#         42
  C:03CAH         LINE#         44
  C:03CAH         LINE#         46
  C:03D9H         LINE#         47
  C:03D9H         LINE#         49
  C:03DFH         LINE#         50
  C:03E5H         LINE#         51
  C:03E8H         LINE#         52
  C:03E8H         LINE#         54
  C:03F7H         LINE#         55
  C:03F7H         LINE#         57
  C:03FDH         LINE#         58
  C:0403H         LINE#         59
  C:0406H         LINE#         61
  C:0406H         LINE#         64
  C:0415H         LINE#         65
  C:0415H         LINE#         67
  C:041BH         LINE#         68
  C:0421H         LINE#         69
  C:0424H         LINE#         70
BL51 BANKED LINKER/LOCATER V6.22.4.0                                                  01/27/2023  12:06:16  PAGE 6


  C:0424H         LINE#         71
  -------         ENDPROC       TRACK
  -------         ENDMOD        TRACK

  -------         MODULE        DELAY
  C:0000H         SYMBOL        _ICE_DUMMY_
  C:0604H         PUBLIC        _Delay10us
  -------         PROC          _DELAY10US
  D:0006H         SYMBOL        t
  -------         DO            
  D:0005H         SYMBOL        i
  -------         ENDDO         
  C:0604H         LINE#         2
  C:0604H         LINE#         3
  C:0604H         LINE#         5
  C:0608H         LINE#         6
  C:0608H         LINE#         7
  C:060AH         LINE#         8
  C:060CH         LINE#         9
  C:0611H         LINE#         10
  C:0613H         LINE#         12
  -------         ENDPROC       _DELAY10US
  -------         ENDMOD        DELAY

  -------         MODULE        HCSR04
  C:0000H         SYMBOL        _ICE_DUMMY_
  D:0080H         PUBLIC        P0
  B:00B0H.2       PUBLIC        Echo
  D:00B0H         PUBLIC        P3
  B:0080H.0       PUBLIC        Trig
  D:001AH         PUBLIC        sound_speed
  D:0089H         PUBLIC        TMOD
  C:0651H         PUBLIC        ultra_init
  B:0088H.5       PUBLIC        TF0
  C:0614H         PUBLIC        Timer0Init
  D:008CH         PUBLIC        TH0
  D:008AH         PUBLIC        TL0
  B:0088H.4       PUBLIC        TR0
  C:02B7H         PUBLIC        get_distance
  -------         PROC          TIMER0INIT
  C:0614H         LINE#         11
  C:0614H         LINE#         12
  C:0614H         LINE#         13
  C:0617H         LINE#         14
  C:061AH         LINE#         15
  C:061DH         LINE#         16
  C:061FH         LINE#         17
  C:0621H         LINE#         18
  C:0623H         LINE#         19
  -------         ENDPROC       TIMER0INIT
  -------         PROC          ULTRA_INIT
  C:0651H         LINE#         21
  C:0651H         LINE#         22
  C:0651H         LINE#         23
  C:0653H         LINE#         24
  C:0655H         LINE#         25
  -------         ENDPROC       ULTRA_INIT
BL51 BANKED LINKER/LOCATER V6.22.4.0                                                  01/27/2023  12:06:16  PAGE 7


  -------         PROC          GET_DISTANCE
  -------         DO            
  D:0006H         SYMBOL        timeH
  D:0004H         SYMBOL        timeL
  D:0006H         SYMBOL        distance
  D:0082H         SYMBOL        time
  D:001CH         SYMBOL        time_counter
  -------         ENDDO         
  C:02B7H         LINE#         28
  C:02B7H         LINE#         29
  C:02B7H         LINE#         32
  C:02BCH         LINE#         33
  C:02BFH         LINE#         35
  C:02C1H         LINE#         36
  C:02C8H         LINE#         37
  C:02CAH         LINE#         38
  C:02CCH         LINE#         40
  C:02CFH         LINE#         41
  C:02CFH         LINE#         42
  C:02D7H         LINE#         43
  C:02DEH         LINE#         44
  C:02E9H         LINE#         45
  C:02E9H         LINE#         46
  C:02EEH         LINE#         47
  C:02EEH         LINE#         48
  C:02EEH         LINE#         49
  C:02F3H         LINE#         50
  C:02F6H         LINE#         51
  C:02F6H         LINE#         52
  C:02FEH         LINE#         53
  C:0305H         LINE#         54
  C:0310H         LINE#         55
  C:0310H         LINE#         56
  C:0315H         LINE#         57
  C:0315H         LINE#         58
  C:0315H         LINE#         59
  C:0317H         LINE#         60
  C:031BH         LINE#         61
  C:031EH         LINE#         62
  C:0320H         LINE#         63
  C:032BH         LINE#         64
  C:0340H         LINE#         65
  C:036FH         LINE#         66
  C:036FH         LINE#         68
  -------         ENDPROC       GET_DISTANCE
  -------         ENDMOD        HCSR04

  -------         MODULE        TIMER
  C:0000H         SYMBOL        _ICE_DUMMY_
  D:0090H         PUBLIC        P1
  D:00A0H         PUBLIC        P2
  D:0008H         PUBLIC        counter
  B:00A8H.7       PUBLIC        EA
  D:000AH         PUBLIC        ENA_compare
  D:000CH         PUBLIC        ENB_compare
  D:00CBH         PUBLIC        RCAP2H
  D:00CAH         PUBLIC        RCAP2L
BL51 BANKED LINKER/LOCATER V6.22.4.0                                                  01/27/2023  12:06:16  PAGE 8


  D:0089H         PUBLIC        TMOD
  B:00A8H.3       PUBLIC        ET1
  B:00A8H.5       PUBLIC        ET2
  B:0088H.7       PUBLIC        TF1
  C:0003H         PUBLIC        Timer1Init
  B:00C8H.7       PUBLIC        TF2
  C:05D1H         PUBLIC        Timer2Init
  D:008DH         PUBLIC        TH1
  D:00CDH         PUBLIC        TH2
  D:008BH         PUBLIC        TL1
  D:00CCH         PUBLIC        TL2
  B:0090H.2       PUBLIC        ENA
  B:0090H.7       PUBLIC        ENB
  B:00B8H.3       PUBLIC        PT1
  B:00B8H.5       PUBLIC        PT2
  B:0088H.6       PUBLIC        TR1
  B:00C8H.2       PUBLIC        TR2
  D:00C9H         PUBLIC        T2MOD
  D:00C8H         PUBLIC        T2CON
  C:0550H         PUBLIC        EN_PWM
  C:059AH         PUBLIC        Timer_T1
  D:000EH         PUBLIC        compare
  B:00A0H.5       PUBLIC        PWM
  D:0010H         PUBLIC        EN_counter
  -------         PROC          TIMER1INIT
  C:0003H         LINE#         20
  C:0003H         LINE#         21
  C:0003H         LINE#         22
  C:0006H         LINE#         23
  C:0009H         LINE#         24
  C:000CH         LINE#         25
  C:000FH         LINE#         26
  C:0011H         LINE#         27
  C:0013H         LINE#         28
  C:0015H         LINE#         29
  C:0017H         LINE#         30
  C:0019H         LINE#         31
  -------         ENDPROC       TIMER1INIT
  -------         PROC          TIMER2INIT
  C:05D1H         LINE#         33
  C:05D1H         LINE#         34
  C:05D1H         LINE#         35
  C:05D4H         LINE#         36
  C:05D6H         LINE#         37
  C:05D9H         LINE#         38
  C:05DCH         LINE#         39
  C:05DFH         LINE#         40
  C:05E2H         LINE#         41
  C:05E4H         LINE#         42
  C:05E6H         LINE#         43
  C:05E8H         LINE#         44
  C:05EAH         LINE#         45
  -------         ENDPROC       TIMER2INIT
  -------         PROC          TIMER_T1
  C:059AH         LINE#         47
  C:059EH         LINE#         49
  C:05A1H         LINE#         50
BL51 BANKED LINKER/LOCATER V6.22.4.0                                                  01/27/2023  12:06:16  PAGE 9


  C:05A4H         LINE#         52
  C:05ACH         LINE#         54
  C:05B5H         LINE#         55
  C:05B5H         LINE#         56
  C:05BBH         LINE#         57
  C:05BBH         LINE#         59
  C:05C6H         LINE#         60
  C:05C6H         LINE#         61
  C:05C8H         LINE#         62
  C:05CAH         LINE#         64
  C:05CAH         LINE#         65
  C:05CCH         LINE#         66
  C:05CCH         LINE#         68
  -------         ENDPROC       TIMER_T1
  -------         PROC          EN_PWM
  C:0550H         LINE#         70
  C:0554H         LINE#         72
  C:0557H         LINE#         73
  C:055AH         LINE#         74
  C:055CH         LINE#         76
  C:0564H         LINE#         78
  C:056DH         LINE#         79
  C:056DH         LINE#         80
  C:0573H         LINE#         81
  C:0573H         LINE#         83
  C:057EH         LINE#         84
  C:057EH         LINE#         85
  C:0580H         LINE#         86
  C:0582H         LINE#         88
  C:0582H         LINE#         89
  C:0584H         LINE#         90
  C:0584H         LINE#         91
  C:058FH         LINE#         92
  C:058FH         LINE#         93
  C:0591H         LINE#         94
  C:0593H         LINE#         96
  C:0593H         LINE#         97
  C:0595H         LINE#         98
  C:0595H         LINE#         99
  -------         ENDPROC       EN_PWM
  -------         ENDMOD        TIMER

  -------         MODULE        ?C?FPMUL
  C:002EH         PUBLIC        ?C?FPMUL
  -------         ENDMOD        ?C?FPMUL

  -------         MODULE        ?C?FPDIV
  C:0137H         PUBLIC        ?C?FPDIV
  -------         ENDMOD        ?C?FPDIV

  -------         MODULE        ?C?FCAST
  C:01DEH         PUBLIC        ?C?FCASTC
  C:01D9H         PUBLIC        ?C?FCASTI
  C:01D4H         PUBLIC        ?C?FCASTL
  -------         ENDMOD        ?C?FCAST

  -------         MODULE        ?C?CASTF
BL51 BANKED LINKER/LOCATER V6.22.4.0                                                  01/27/2023  12:06:16  PAGE 10


  C:0212H         PUBLIC        ?C?CASTF
  -------         ENDMOD        ?C?CASTF

  -------         MODULE        ?C?LNEG
  C:0293H         PUBLIC        ?C?LNEG
  -------         ENDMOD        ?C?LNEG

  -------         MODULE        ?C?SLCMP
  C:02A1H         PUBLIC        ?C?SLCMP
  -------         ENDMOD        ?C?SLCMP

Program Size: data=31.0 xdata=0 code=1619
LINK/LOCATE RUN COMPLETE.  0 WARNING(S),  0 ERROR(S)
